target datalayout = "e-m:e-p270:32:32-p271:32:32-p272:64:64-i64:64-i128:128-f80:128-n8:16:32:64-S128"
target triple = "x86_64-pc-linux-gnu"

%struct.Nwk_Obj_t_ = type { ptr, ptr, ptr, %union.anon, i32, i32, i32, i32, float, float, float, i32, i32, i32, ptr }
%union.anon = type { ptr }
%struct.Nwk_Man_t_ = type { ptr, ptr, ptr, ptr, ptr, [5 x i32], i32, ptr, ptr, ptr, ptr, ptr, i32, i32, i32, i32, i32 }
%struct.If_LibLut_t_ = type { ptr, i32, i32, [33 x float], [33 x [33 x float]] }

; Function Attrs: inlinehint nounwind uwtable
define internal ptr @Nwk_ObjFanin(ptr noundef %0, i32 noundef %1) #1 {
  %3 = alloca ptr, align 8
  %4 = alloca i32, align 4
  store ptr %0, ptr %3, align 8, !tbaa !34
  store i32 %1, ptr %4, align 4, !tbaa !36
  %5 = load ptr, ptr %3, align 8, !tbaa !34
  %6 = getelementptr inbounds nuw %struct.Nwk_Obj_t_, ptr %5, i32 0, i32 14
  %7 = load ptr, ptr %6, align 8, !tbaa !65
  %8 = load i32, ptr %4, align 4, !tbaa !36
  %9 = sext i32 %8 to i64
  %10 = getelementptr inbounds ptr, ptr %7, i64 %9
  %11 = load ptr, ptr %10, align 8, !tbaa !34
  ret ptr %11
}

; Function Attrs: inlinehint nounwind uwtable
define internal i32 @Nwk_ObjFaninNum(ptr noundef %0) #1 {
  %2 = alloca ptr, align 8
  store ptr %0, ptr %2, align 8, !tbaa !34
  %3 = load ptr, ptr %2, align 8, !tbaa !34
  %4 = getelementptr inbounds nuw %struct.Nwk_Obj_t_, ptr %3, i32 0, i32 11
  %5 = load i32, ptr %4, align 4, !tbaa !64
  ret i32 %5
}

; Function Attrs: inlinehint nounwind uwtable
define internal float @Nwk_ObjArrival(ptr noundef %0) #1 {
  %2 = alloca ptr, align 8
  store ptr %0, ptr %2, align 8, !tbaa !34
  %3 = load ptr, ptr %2, align 8, !tbaa !34
  %4 = getelementptr inbounds nuw %struct.Nwk_Obj_t_, ptr %3, i32 0, i32 8
  %5 = load float, ptr %4, align 8, !tbaa !74
  ret float %5
}

; Function Attrs: inlinehint nounwind uwtable
define internal float @Nwk_ObjRequired(ptr noundef %0) #1 {
  %2 = alloca ptr, align 8
  store ptr %0, ptr %2, align 8, !tbaa !34
  %3 = load ptr, ptr %2, align 8, !tbaa !34
  %4 = getelementptr inbounds nuw %struct.Nwk_Obj_t_, ptr %3, i32 0, i32 9
  %5 = load float, ptr %4, align 4, !tbaa !73
  ret float %5
}

; Function Attrs: nounwind uwtable
define i32 @Nwk_ManDelayTraceTCEdges(ptr noundef %0, ptr noundef %1, float noundef %2, i32 noundef %3) #0 {
  %5 = alloca ptr, align 8
  %6 = alloca ptr, align 8
  %7 = alloca float, align 4
  %8 = alloca i32, align 4
  %9 = alloca [32 x i32], align 16
  %10 = alloca [32 x float], align 16
  %11 = alloca ptr, align 8
  %12 = alloca ptr, align 8
  %13 = alloca i32, align 4
  %14 = alloca float, align 4
  %15 = alloca ptr, align 8
  %16 = alloca i32, align 4
  store ptr %0, ptr %5, align 8, !tbaa !32
  store ptr %1, ptr %6, align 8, !tbaa !34
  store float %2, ptr %7, align 4, !tbaa !56
  store i32 %3, ptr %8, align 4, !tbaa !36
  call void @llvm.lifetime.start.p0(i64 128, ptr %9) #8
  call void @llvm.lifetime.start.p0(i64 128, ptr %10) #8
  call void @llvm.lifetime.start.p0(i64 8, ptr %11) #8
  %17 = load i32, ptr %8, align 4, !tbaa !36
  %18 = icmp ne i32 %17, 0
  br i1 %18, label %19, label %23

19:                                               ; preds = %4
  %20 = load ptr, ptr %5, align 8, !tbaa !32
  %21 = getelementptr inbounds nuw %struct.Nwk_Man_t_, ptr %20, i32 0, i32 9
  %22 = load ptr, ptr %21, align 8, !tbaa !57
  br label %24

23:                                               ; preds = %4
  br label %24

24:                                               ; preds = %23, %19
  %25 = phi ptr [ %22, %19 ], [ null, %23 ]
  store ptr %25, ptr %11, align 8, !tbaa !63
  call void @llvm.lifetime.start.p0(i64 8, ptr %12) #8
  call void @llvm.lifetime.start.p0(i64 4, ptr %13) #8
  store i32 0, ptr %13, align 4, !tbaa !36
  call void @llvm.lifetime.start.p0(i64 4, ptr %14) #8
  call void @llvm.lifetime.start.p0(i64 8, ptr %15) #8
  call void @llvm.lifetime.start.p0(i64 4, ptr %16) #8
  %26 = load ptr, ptr %6, align 8, !tbaa !34
  %27 = call float @Nwk_ObjRequired(ptr noundef %26)
  store float %27, ptr %14, align 4, !tbaa !56
  %28 = load ptr, ptr %11, align 8, !tbaa !63
  %29 = icmp eq ptr %28, null
  br i1 %29, label %30, label %69

30:                                               ; preds = %24
  store i32 0, ptr %16, align 4, !tbaa !36
  br label %31

31:                                               ; preds = %65, %30
  %32 = load i32, ptr %16, align 4, !tbaa !36
  %33 = load ptr, ptr %6, align 8, !tbaa !34
  %34 = getelementptr inbounds nuw %struct.Nwk_Obj_t_, ptr %33, i32 0, i32 11
  %35 = load i32, ptr %34, align 4, !tbaa !64
  %36 = icmp slt i32 %32, %35
  br i1 %36, label %37, label %46

37:                                               ; preds = %31
  %38 = load ptr, ptr %6, align 8, !tbaa !34
  %39 = getelementptr inbounds nuw %struct.Nwk_Obj_t_, ptr %38, i32 0, i32 14
  %40 = load ptr, ptr %39, align 8, !tbaa !65
  %41 = load i32, ptr %16, align 4, !tbaa !36
  %42 = sext i32 %41 to i64
  %43 = getelementptr inbounds ptr, ptr %40, i64 %42
  %44 = load ptr, ptr %43, align 8, !tbaa !34
  store ptr %44, ptr %12, align 8, !tbaa !34
  %45 = icmp ne ptr %44, null
  br label %46

46:                                               ; preds = %37, %31
  %47 = phi i1 [ false, %31 ], [ %45, %37 ]
  br i1 %47, label %48, label %68

48:                                               ; preds = %46
  %49 = load float, ptr %14, align 4, !tbaa !56
  %50 = fpext float %49 to double
  %51 = load ptr, ptr %12, align 8, !tbaa !34
  %52 = call float @Nwk_ObjArrival(ptr noundef %51)
  %53 = fpext float %52 to double
  %54 = fadd double %53, 1.000000e+00
  %55 = load float, ptr %7, align 4, !tbaa !56
  %56 = fpext float %55 to double
  %57 = fadd double %54, %56
  %58 = fcmp olt double %50, %57
  br i1 %58, label %59, label %64

59:                                               ; preds = %48
  %60 = load i32, ptr %16, align 4, !tbaa !36
  %61 = shl i32 1, %60
  %62 = load i32, ptr %13, align 4, !tbaa !36
  %63 = or i32 %62, %61
  store i32 %63, ptr %13, align 4, !tbaa !36
  br label %64

64:                                               ; preds = %59, %48
  br label %65

65:                                               ; preds = %64
  %66 = load i32, ptr %16, align 4, !tbaa !36
  %67 = add nsw i32 %66, 1
  store i32 %67, ptr %16, align 4, !tbaa !36
  br label %31, !llvm.loop !66

68:                                               ; preds = %46
  br label %180

69:                                               ; preds = %24
  %70 = load ptr, ptr %11, align 8, !tbaa !63
  %71 = getelementptr inbounds nuw %struct.If_LibLut_t_, ptr %70, i32 0, i32 2
  %72 = load i32, ptr %71, align 4, !tbaa !67
  %73 = icmp ne i32 %72, 0
  br i1 %73, label %120, label %74

74:                                               ; preds = %69
  %75 = load ptr, ptr %11, align 8, !tbaa !63
  %76 = getelementptr inbounds nuw %struct.If_LibLut_t_, ptr %75, i32 0, i32 4
  %77 = load ptr, ptr %6, align 8, !tbaa !34
  %78 = call i32 @Nwk_ObjFaninNum(ptr noundef %77)
  %79 = sext i32 %78 to i64
  %80 = getelementptr inbounds [33 x [33 x float]], ptr %76, i64 0, i64 %79
  %81 = getelementptr inbounds [33 x float], ptr %80, i64 0, i64 0
  store ptr %81, ptr %15, align 8, !tbaa !69
  store i32 0, ptr %16, align 4, !tbaa !36
  br label %82

82:                                               ; preds = %116, %74
  %83 = load i32, ptr %16, align 4, !tbaa !36
  %84 = load ptr, ptr %6, align 8, !tbaa !34
  %85 = getelementptr inbounds nuw %struct.Nwk_Obj_t_, ptr %84, i32 0, i32 11
  %86 = load i32, ptr %85, align 4, !tbaa !64
  %87 = icmp slt i32 %83, %86
  br i1 %87, label %88, label %97

88:                                               ; preds = %82
  %89 = load ptr, ptr %6, align 8, !tbaa !34
  %90 = getelementptr inbounds nuw %struct.Nwk_Obj_t_, ptr %89, i32 0, i32 14
  %91 = load ptr, ptr %90, align 8, !tbaa !65
  %92 = load i32, ptr %16, align 4, !tbaa !36
  %93 = sext i32 %92 to i64
  %94 = getelementptr inbounds ptr, ptr %91, i64 %93
  %95 = load ptr, ptr %94, align 8, !tbaa !34
  store ptr %95, ptr %12, align 8, !tbaa !34
  %96 = icmp ne ptr %95, null
  br label %97

97:                                               ; preds = %88, %82
  %98 = phi i1 [ false, %82 ], [ %96, %88 ]
  br i1 %98, label %99, label %119

99:                                               ; preds = %97
  %100 = load float, ptr %14, align 4, !tbaa !56
  %101 = load ptr, ptr %12, align 8, !tbaa !34
  %102 = call float @Nwk_ObjArrival(ptr noundef %101)
  %103 = load ptr, ptr %15, align 8, !tbaa !69
  %104 = getelementptr inbounds float, ptr %103, i64 0
  %105 = load float, ptr %104, align 4, !tbaa !56
  %106 = fadd float %102, %105
  %107 = load float, ptr %7, align 4, !tbaa !56
  %108 = fadd float %106, %107
  %109 = fcmp olt float %100, %108
  br i1 %109, label %110, label %115

110:                                              ; preds = %99
  %111 = load i32, ptr %16, align 4, !tbaa !36
  %112 = shl i32 1, %111
  %113 = load i32, ptr %13, align 4, !tbaa !36
  %114 = or i32 %113, %112
  store i32 %114, ptr %13, align 4, !tbaa !36
  br label %115

115:                                              ; preds = %110, %99
  br label %116

116:                                              ; preds = %115
  %117 = load i32, ptr %16, align 4, !tbaa !36
  %118 = add nsw i32 %117, 1
  store i32 %118, ptr %16, align 4, !tbaa !36
  br label %82, !llvm.loop !71

119:                                              ; preds = %97
  br label %179

120:                                              ; preds = %69
  %121 = load ptr, ptr %11, align 8, !tbaa !63
  %122 = getelementptr inbounds nuw %struct.If_LibLut_t_, ptr %121, i32 0, i32 4
  %123 = load ptr, ptr %6, align 8, !tbaa !34
  %124 = call i32 @Nwk_ObjFaninNum(ptr noundef %123)
  %125 = sext i32 %124 to i64
  %126 = getelementptr inbounds [33 x [33 x float]], ptr %122, i64 0, i64 %125
  %127 = getelementptr inbounds [33 x float], ptr %126, i64 0, i64 0
  store ptr %127, ptr %15, align 8, !tbaa !69
  %128 = load ptr, ptr %6, align 8, !tbaa !34
  %129 = getelementptr inbounds [32 x i32], ptr %9, i64 0, i64 0
  %130 = getelementptr inbounds [32 x float], ptr %10, i64 0, i64 0
  call void @Nwk_ManDelayTraceSortPins(ptr noundef %128, ptr noundef %129, ptr noundef %130)
  store i32 0, ptr %16, align 4, !tbaa !36
  br label %131

131:                                              ; preds = %175, %120
  %132 = load i32, ptr %16, align 4, !tbaa !36
  %133 = load ptr, ptr %6, align 8, !tbaa !34
  %134 = getelementptr inbounds nuw %struct.Nwk_Obj_t_, ptr %133, i32 0, i32 11
  %135 = load i32, ptr %134, align 4, !tbaa !64
  %136 = icmp slt i32 %132, %135
  br i1 %136, label %137, label %146

137:                                              ; preds = %131
  %138 = load ptr, ptr %6, align 8, !tbaa !34
  %139 = getelementptr inbounds nuw %struct.Nwk_Obj_t_, ptr %138, i32 0, i32 14
  %140 = load ptr, ptr %139, align 8, !tbaa !65
  %141 = load i32, ptr %16, align 4, !tbaa !36
  %142 = sext i32 %141 to i64
  %143 = getelementptr inbounds ptr, ptr %140, i64 %142
  %144 = load ptr, ptr %143, align 8, !tbaa !34
  store ptr %144, ptr %12, align 8, !tbaa !34
  %145 = icmp ne ptr %144, null
  br label %146

146:                                              ; preds = %137, %131
  %147 = phi i1 [ false, %131 ], [ %145, %137 ]
  br i1 %147, label %148, label %178

148:                                              ; preds = %146
  %149 = load float, ptr %14, align 4, !tbaa !56
  %150 = load ptr, ptr %6, align 8, !tbaa !34
  %151 = load i32, ptr %16, align 4, !tbaa !36
  %152 = sext i32 %151 to i64
  %153 = getelementptr inbounds [32 x i32], ptr %9, i64 0, i64 %152
  %154 = load i32, ptr %153, align 4, !tbaa !36
  %155 = call ptr @Nwk_ObjFanin(ptr noundef %150, i32 noundef %154)
  %156 = call float @Nwk_ObjArrival(ptr noundef %155)
  %157 = load ptr, ptr %15, align 8, !tbaa !69
  %158 = load i32, ptr %16, align 4, !tbaa !36
  %159 = sext i32 %158 to i64
  %160 = getelementptr inbounds float, ptr %157, i64 %159
  %161 = load float, ptr %160, align 4, !tbaa !56
  %162 = fadd float %156, %161
  %163 = load float, ptr %7, align 4, !tbaa !56
  %164 = fadd float %162, %163
  %165 = fcmp olt float %149, %164
  br i1 %165, label %166, label %174

166:                                              ; preds = %148
  %167 = load i32, ptr %16, align 4, !tbaa !36
  %168 = sext i32 %167 to i64
  %169 = getelementptr inbounds [32 x i32], ptr %9, i64 0, i64 %168
  %170 = load i32, ptr %169, align 4, !tbaa !36
  %171 = shl i32 1, %170
  %172 = load i32, ptr %13, align 4, !tbaa !36
  %173 = or i32 %172, %171
  store i32 %173, ptr %13, align 4, !tbaa !36
  br label %174

174:                                              ; preds = %166, %148
  br label %175

175:                                              ; preds = %174
  %176 = load i32, ptr %16, align 4, !tbaa !36
  %177 = add nsw i32 %176, 1
  store i32 %177, ptr %16, align 4, !tbaa !36
  br label %131, !llvm.loop !72

178:                                              ; preds = %146
  br label %179

179:                                              ; preds = %178, %119
  br label %180

180:                                              ; preds = %179, %68
  %181 = load i32, ptr %13, align 4, !tbaa !36
  call void @llvm.lifetime.end.p0(i64 4, ptr %16) #8
  call void @llvm.lifetime.end.p0(i64 8, ptr %15) #8
  call void @llvm.lifetime.end.p0(i64 4, ptr %14) #8
  call void @llvm.lifetime.end.p0(i64 4, ptr %13) #8
  call void @llvm.lifetime.end.p0(i64 8, ptr %12) #8
  call void @llvm.lifetime.end.p0(i64 8, ptr %11) #8
  call void @llvm.lifetime.end.p0(i64 128, ptr %10) #8
  call void @llvm.lifetime.end.p0(i64 128, ptr %9) #8
  ret i32 %181
}