; Function Attrs: nounwind uwtable
define i32 @Nwk_ManDelayTraceTCEdges(ptr noundef readonly captures(none) %0, ptr noundef %1, float noundef %2, i32 noundef %3) local_unnamed_addr #0 {
  %5 = alloca [32 x i32], align 16
  %6 = alloca [32 x float], align 16
  call void @llvm.lifetime.start.p0(i64 128, ptr nonnull %5) #13
  call void @llvm.lifetime.start.p0(i64 128, ptr nonnull %6) #13
  %.not = icmp eq i32 %3, 0
  br i1 %.not, label %.thread, label %8

.thread:                                          ; preds = %4
  %7 = getelementptr i8, ptr %1, i64 52
  %.val97 = load float, ptr %7, align 4, !tbaa !50
  br label %.preheader

8:                                                ; preds = %4
  %9 = getelementptr inbounds nuw i8, ptr %0, i64 80
  %10 = load ptr, ptr %9, align 8, !tbaa !51
  %11 = getelementptr i8, ptr %1, i64 52
  %.val = load float, ptr %11, align 4, !tbaa !50
  %12 = icmp eq ptr %10, null
  br i1 %12, label %.preheader, label %32

.preheader:                                       ; preds = %.thread, %8
  %.val98 = phi float [ %.val97, %.thread ], [ %.val, %8 ]
  %13 = getelementptr inbounds nuw i8, ptr %1, i64 60
  %14 = load i32, ptr %13, align 4, !tbaa !57
  %15 = icmp sgt i32 %14, 0
  br i1 %15, label %.lr.ph78, label %.critedge

.lr.ph78:                                         ; preds = %.preheader
  %16 = getelementptr inbounds nuw i8, ptr %1, i64 72
  %17 = load ptr, ptr %16, align 8, !tbaa !58
  %18 = fpext float %.val98 to double
  %19 = fpext float %2 to double
  %wide.trip.count95 = zext nneg i32 %14 to i64
  br label %20

20:                                               ; preds = %.lr.ph78, %23
  %indvars.iv92 = phi i64 [ 0, %.lr.ph78 ], [ %indvars.iv.next93, %23 ]
  %.04876 = phi i32 [ 0, %.lr.ph78 ], [ %.149, %23 ]
  %21 = getelementptr inbounds nuw ptr, ptr %17, i64 %indvars.iv92
  %22 = load ptr, ptr %21, align 8, !tbaa !59
  %.not57 = icmp eq ptr %22, null
  br i1 %.not57, label %.critedge, label %23

23:                                               ; preds = %20
  %24 = getelementptr i8, ptr %22, i64 48
  %.val58 = load float, ptr %24, align 8, !tbaa !61
  %25 = fpext float %.val58 to double
  %26 = fadd double %25, 1.000000e+00
  %27 = fadd double %26, %19
  %28 = fcmp ogt double %27, %18
  %29 = trunc nuw nsw i64 %indvars.iv92 to i32
  %30 = shl nuw i32 1, %29
  %31 = select i1 %28, i32 %30, i32 0
  %.149 = or i32 %31, %.04876
  %indvars.iv.next93 = add nuw nsw i64 %indvars.iv92, 1
  %exitcond96.not = icmp eq i64 %indvars.iv.next93, %wide.trip.count95
  br i1 %exitcond96.not, label %.critedge, label %20, !llvm.loop !62

32:                                               ; preds = %8
  %33 = getelementptr inbounds nuw i8, ptr %10, i64 12
  %34 = load i32, ptr %33, align 4, !tbaa !63
  %.not54 = icmp eq i32 %34, 0
  %35 = getelementptr inbounds nuw i8, ptr %10, i64 148
  %36 = getelementptr i8, ptr %1, i64 60
  %.val61 = load i32, ptr %36, align 4, !tbaa !57
  %37 = sext i32 %.val61 to i64
  %38 = getelementptr inbounds [33 x [33 x float]], ptr %35, i64 0, i64 %37
  br i1 %.not54, label %39, label %55

39:                                               ; preds = %32
  %40 = icmp sgt i32 %.val61, 0
  br i1 %40, label %.lr.ph72, label %.critedge

.lr.ph72:                                         ; preds = %39
  %41 = getelementptr inbounds nuw i8, ptr %1, i64 72
  %42 = load ptr, ptr %41, align 8, !tbaa !58
  %wide.trip.count90 = zext nneg i32 %.val61 to i64
  br label %43

43:                                               ; preds = %.lr.ph72, %46
  %indvars.iv87 = phi i64 [ 0, %.lr.ph72 ], [ %indvars.iv.next88, %46 ]
  %.370 = phi i32 [ 0, %.lr.ph72 ], [ %.4, %46 ]
  %44 = getelementptr inbounds nuw ptr, ptr %42, i64 %indvars.iv87
  %45 = load ptr, ptr %44, align 8, !tbaa !59
  %.not55 = icmp eq ptr %45, null
  br i1 %.not55, label %.critedge, label %46

46:                                               ; preds = %43
  %47 = getelementptr i8, ptr %45, i64 48
  %.val59 = load float, ptr %47, align 8, !tbaa !61
  %48 = load float, ptr %38, align 4, !tbaa !65
  %49 = fadd float %.val59, %48
  %50 = fadd float %2, %49
  %51 = fcmp olt float %.val, %50
  %52 = trunc nuw nsw i64 %indvars.iv87 to i32
  %53 = shl nuw i32 1, %52
  %54 = select i1 %51, i32 %53, i32 0
  %.4 = or i32 %54, %.370
  %indvars.iv.next88 = add nuw nsw i64 %indvars.iv87, 1
  %exitcond91.not = icmp eq i64 %indvars.iv.next88, %wide.trip.count90
  br i1 %exitcond91.not, label %.critedge, label %43, !llvm.loop !66

55:                                               ; preds = %32
  call void @Nwk_ManDelayTraceSortPins(ptr noundef nonnull %1, ptr noundef nonnull %5, ptr noundef nonnull %6) #13
  %56 = load i32, ptr %36, align 4, !tbaa !57
  %57 = icmp sgt i32 %56, 0
  br i1 %57, label %.lr.ph, label %.critedge

.lr.ph:                                           ; preds = %55
  %58 = getelementptr inbounds nuw i8, ptr %1, i64 72
  %59 = load ptr, ptr %58, align 8, !tbaa !58
  %wide.trip.count = zext nneg i32 %56 to i64
  br label %60

60:                                               ; preds = %.lr.ph, %63
  %indvars.iv = phi i64 [ 0, %.lr.ph ], [ %indvars.iv.next, %63 ]
  %.566 = phi i32 [ 0, %.lr.ph ], [ %.6, %63 ]
  %61 = getelementptr inbounds nuw ptr, ptr %59, i64 %indvars.iv
  %62 = load ptr, ptr %61, align 8, !tbaa !59
  %.not56 = icmp eq ptr %62, null
  br i1 %.not56, label %.critedge, label %63

63:                                               ; preds = %60
  %64 = getelementptr inbounds nuw [32 x i32], ptr %5, i64 0, i64 %indvars.iv
  %65 = load i32, ptr %64, align 4, !tbaa !67
  %66 = sext i32 %65 to i64
  %67 = getelementptr inbounds ptr, ptr %59, i64 %66
  %68 = load ptr, ptr %67, align 8, !tbaa !59
  %69 = getelementptr i8, ptr %68, i64 48
  %.val60 = load float, ptr %69, align 8, !tbaa !61
  %70 = getelementptr inbounds nuw float, ptr %38, i64 %indvars.iv
  %71 = load float, ptr %70, align 4, !tbaa !65
  %72 = fadd float %.val60, %71
  %73 = fadd float %2, %72
  %74 = fcmp olt float %.val, %73
  %75 = shl nuw i32 1, %65
  %76 = select i1 %74, i32 %75, i32 0
  %.6 = or i32 %76, %.566
  %indvars.iv.next = add nuw nsw i64 %indvars.iv, 1
  %exitcond.not = icmp eq i64 %indvars.iv.next, %wide.trip.count
  br i1 %exitcond.not, label %.critedge, label %60, !llvm.loop !68

.critedge:                                        ; preds = %60, %63, %43, %46, %23, %20, %55, %39, %.preheader
  %.250 = phi i32 [ 0, %.preheader ], [ 0, %39 ], [ 0, %55 ], [ %.149, %23 ], [ %.04876, %20 ], [ %.370, %43 ], [ %.4, %46 ], [ %.566, %60 ], [ %.6, %63 ]
  call void @llvm.lifetime.end.p0(i64 128, ptr nonnull %6) #13
  call void @llvm.lifetime.end.p0(i64 128, ptr nonnull %5) #13
  ret i32 %.250
}